target datalayout = "e-m:e-p270:32:32-p271:32:32-p272:64:64-i64:64-i128:128-f80:128-n8:16:32:64-S128"
target triple = "x86_64-pc-linux-gnu"

%struct.SDL_Touch = type { i64, i32, i32, i32, ptr, ptr }

@SDL_num_touch = internal global i32 0, align 4
@SDL_touchDevices = internal global ptr null, align 8

; Function Attrs: nounwind uwtable
define hidden void @SDL_QuitTouch() #0 {
  %1 = alloca i32, align 4
  call void @llvm.lifetime.start.p0(i64 4, ptr %1) #5
  %2 = load i32, ptr @SDL_num_touch, align 4
  store i32 %2, ptr %1, align 4
  br label %3

3:                                                ; preds = %7, %0
  %4 = load i32, ptr %1, align 4
  %5 = add nsw i32 %4, -1
  store i32 %5, ptr %1, align 4
  %6 = icmp ne i32 %4, 0
  br i1 %6, label %7, label %15

7:                                                ; preds = %3
  %8 = load ptr, ptr @SDL_touchDevices, align 8
  %9 = load i32, ptr %1, align 4
  %10 = sext i32 %9 to i64
  %11 = getelementptr inbounds ptr, ptr %8, i64 %10
  %12 = load ptr, ptr %11, align 8
  %13 = getelementptr inbounds nuw %struct.SDL_Touch, ptr %12, i32 0, i32 0
  %14 = load i64, ptr %13, align 8
  call void @SDL_DelTouch(i64 noundef %14)
  br label %3, !llvm.loop !10

15:                                               ; preds = %3
  br label %16

16:                                               ; preds = %15
  br label %17

17:                                               ; preds = %16
  br label %18

18:                                               ; preds = %17
  %19 = load ptr, ptr @SDL_touchDevices, align 8
  call void @SDL_free_REAL(ptr noundef %19)
  store ptr null, ptr @SDL_touchDevices, align 8
  call void @llvm.lifetime.end.p0(i64 4, ptr %1) #5
  ret void
}