; Function Attrs: nounwind uwtable
define hidden void @SDL_QuitTouch() local_unnamed_addr #2 {
  %1 = load i32, ptr @SDL_num_touch, align 4
  %.not2 = icmp eq i32 %1, 0
  br i1 %.not2, label %._crit_edge, label %.lr.ph.preheader

.lr.ph.preheader:                                 ; preds = %0
  %2 = sext i32 %1 to i64
  br label %.lr.ph

.lr.ph:                                           ; preds = %.lr.ph.preheader, %.lr.ph
  %indvars.iv = phi i64 [ %2, %.lr.ph.preheader ], [ %indvars.iv.next, %.lr.ph ]
  %indvars.iv.next = add nsw i64 %indvars.iv, -1
  %3 = load ptr, ptr @SDL_touchDevices, align 8
  %4 = getelementptr inbounds ptr, ptr %3, i64 %indvars.iv.next
  %5 = load ptr, ptr %4, align 8
  %6 = load i64, ptr %5, align 8
  tail call void @SDL_DelTouch(i64 noundef %6)
  %.not = icmp eq i64 %indvars.iv.next, 0
  br i1 %.not, label %._crit_edge, label %.lr.ph, !llvm.loop !11

._crit_edge:                                      ; preds = %.lr.ph, %0
  %7 = load ptr, ptr @SDL_touchDevices, align 8
  tail call void @SDL_free_REAL(ptr noundef %7) #7
  store ptr null, ptr @SDL_touchDevices, align 8
  ret void
}